; Function Attrs: mustprogress uwtable
define void @_ZN2cv3hal10invSqrt64fEPKdPdi(ptr noundef readonly captures(none) %0, ptr noundef writeonly captures(none) %1, i32 noundef %2) local_unnamed_addr #0 personality ptr @__gxx_personality_v0 {
  %4 = alloca %"class.cv::utils::trace::details::Region", align 8
  %5 = alloca %"class.cv::utils::trace::details::Region", align 8
  call void @llvm.lifetime.start.p0(i64 16, ptr nonnull %5) #12
  call void @_ZN2cv5utils5trace7details6RegionC1ERKNS3_21LocationStaticStorageE(ptr noundef nonnull align 8 dereferenceable(12) %5, ptr noundef nonnull align 8 dereferenceable(32) @_ZZN2cv3hal10invSqrt64fEPKdPdiE24__cv_trace_location_fn99)
  call void @llvm.lifetime.start.p0(i64 16, ptr nonnull %4) #12
  invoke void @_ZN2cv5utils5trace7details6RegionC1ERKNS3_21LocationStaticStorageE(ptr noundef nonnull align 8 dereferenceable(12) %4, ptr noundef nonnull align 8 dereferenceable(32) @_ZZN2cv3hal12cpu_baseline10invSqrt64fEPKdPdiE25__cv_trace_location_fn368)
          to label %.noexc unwind label %24

.noexc:                                           ; preds = %3
  %6 = icmp sgt i32 %2, 0
  br i1 %6, label %.lr.ph.preheader.i, label %._crit_edge.i

.lr.ph.preheader.i:                               ; preds = %.noexc
  %wide.trip.count.i = zext nneg i32 %2 to i64
  br label %.lr.ph.i

.lr.ph.i:                                         ; preds = %.lr.ph.i, %.lr.ph.preheader.i
  %indvars.iv.i = phi i64 [ 0, %.lr.ph.preheader.i ], [ %indvars.iv.next.i, %.lr.ph.i ]
  %7 = getelementptr inbounds nuw double, ptr %0, i64 %indvars.iv.i
  %8 = load double, ptr %7, align 8, !tbaa !14
  %9 = call double @sqrt(double noundef %8) #12, !tbaa !26
  %10 = fdiv double 1.000000e+00, %9
  %11 = getelementptr inbounds nuw double, ptr %1, i64 %indvars.iv.i
  store double %10, ptr %11, align 8, !tbaa !14
  %indvars.iv.next.i = add nuw nsw i64 %indvars.iv.i, 1
  %exitcond.not.i = icmp eq i64 %indvars.iv.next.i, %wide.trip.count.i
  br i1 %exitcond.not.i, label %._crit_edge.i, label %.lr.ph.i, !llvm.loop !28

._crit_edge.i:                                    ; preds = %.lr.ph.i, %.noexc
  %12 = getelementptr inbounds nuw i8, ptr %4, i64 8
  %13 = load i32, ptr %12, align 8, !tbaa !9
  %.not.i.i = icmp eq i32 %13, 0
  br i1 %.not.i.i, label %.critedge, label %14

14:                                               ; preds = %._crit_edge.i
  invoke void @_ZN2cv5utils5trace7details6Region7destroyEv(ptr noundef nonnull align 8 dereferenceable(12) %4)
          to label %.critedge unwind label %15

15:                                               ; preds = %14
  %16 = landingpad { ptr, i32 }
          catch ptr null
  %17 = extractvalue { ptr, i32 } %16, 0
  call void @__clang_call_terminate(ptr %17) #13
  unreachable

.critedge:                                        ; preds = %14, %._crit_edge.i
  call void @llvm.lifetime.end.p0(i64 16, ptr nonnull %4) #12
  %18 = getelementptr inbounds nuw i8, ptr %5, i64 8
  %19 = load i32, ptr %18, align 8, !tbaa !9
  %.not.i = icmp eq i32 %19, 0
  br i1 %.not.i, label %_ZN2cv5utils5trace7details6RegionD2Ev.exit, label %20

20:                                               ; preds = %.critedge
  invoke void @_ZN2cv5utils5trace7details6Region7destroyEv(ptr noundef nonnull align 8 dereferenceable(12) %5)
          to label %_ZN2cv5utils5trace7details6RegionD2Ev.exit unwind label %21

21:                                               ; preds = %20
  %22 = landingpad { ptr, i32 }
          catch ptr null
  %23 = extractvalue { ptr, i32 } %22, 0
  call void @__clang_call_terminate(ptr %23) #13
  unreachable

_ZN2cv5utils5trace7details6RegionD2Ev.exit:       ; preds = %.critedge, %20
  call void @llvm.lifetime.end.p0(i64 16, ptr nonnull %5) #12
  ret void

24:                                               ; preds = %3
  %25 = landingpad { ptr, i32 }
          cleanup
  call void @_ZN2cv5utils5trace7details6RegionD2Ev(ptr noundef nonnull align 8 dereferenceable(12) %5) #12
  call void @llvm.lifetime.end.p0(i64 16, ptr nonnull %5) #12
  resume { ptr, i32 } %25
}